; ModuleID = '22/337.c'
source_filename = "22/337.c"
target datalayout = "e-m:e-p270:32:32-p271:32:32-p272:64:64-i64:64-f80:128-n8:16:32:64-S128"
target triple = "x86_64-pc-linux-gnu"

@.str = private unnamed_addr constant [4 x i8] c"No\0A\00", align 1
@.str.1 = private unnamed_addr constant [4 x i8] c"%d\0A\00", align 1

; Function Attrs: noinline nounwind uwtable
define dso_local void @main() #0 {
  %1 = alloca i8, align 1
  %2 = alloca [1001 x i32], align 16
  %3 = alloca i32, align 4
  %4 = alloca i32, align 4
  %5 = alloca i32, align 4
  store i32 1, i32* %3, align 4
  store i32 -1, i32* %4, align 4
  store i32 -1, i32* %5, align 4
  store i32 0, i32* %3, align 4
  br label %6

6:                                                ; preds = %13, %0
  %7 = load i32, i32* %3, align 4
  %8 = icmp sle i32 %7, 1000
  br i1 %8, label %9, label %16

9:                                                ; preds = %6
  %10 = load i32, i32* %3, align 4
  %11 = sext i32 %10 to i64
  %12 = getelementptr inbounds [1001 x i32], [1001 x i32]* %2, i64 0, i64 %11
  store i32 1000, i32* %12, align 4
  br label %13

13:                                               ; preds = %9
  %14 = load i32, i32* %3, align 4
  %15 = add nsw i32 %14, 1
  store i32 %15, i32* %3, align 4
  br label %6

16:                                               ; preds = %6
  store i32 1, i32* %3, align 4
  br label %17

17:                                               ; preds = %52, %16
  %18 = call i32 @getchar()
  %19 = trunc i32 %18 to i8
  store i8 %19, i8* %1, align 1
  %20 = sext i8 %19 to i32
  %21 = icmp ne i32 %20, 10
  br i1 %21, label %22, label %53

22:                                               ; preds = %17
  %23 = load i8, i8* %1, align 1
  %24 = sext i8 %23 to i32
  %25 = icmp ne i32 %24, 44
  br i1 %25, label %26, label %49

26:                                               ; preds = %22
  %27 = load i32, i32* %3, align 4
  %28 = sext i32 %27 to i64
  %29 = getelementptr inbounds [1001 x i32], [1001 x i32]* %2, i64 0, i64 %28
  %30 = load i32, i32* %29, align 4
  %31 = icmp eq i32 %30, 1000
  br i1 %31, label %32, label %36

32:                                               ; preds = %26
  %33 = load i32, i32* %3, align 4
  %34 = sext i32 %33 to i64
  %35 = getelementptr inbounds [1001 x i32], [1001 x i32]* %2, i64 0, i64 %34
  store i32 0, i32* %35, align 4
  br label %36

36:                                               ; preds = %32, %26
  %37 = load i32, i32* %3, align 4
  %38 = sext i32 %37 to i64
  %39 = getelementptr inbounds [1001 x i32], [1001 x i32]* %2, i64 0, i64 %38
  %40 = load i32, i32* %39, align 4
  %41 = mul nsw i32 %40, 10
  %42 = load i8, i8* %1, align 1
  %43 = sext i8 %42 to i32
  %44 = add nsw i32 %41, %43
  %45 = sub nsw i32 %44, 48
  %46 = load i32, i32* %3, align 4
  %47 = sext i32 %46 to i64
  %48 = getelementptr inbounds [1001 x i32], [1001 x i32]* %2, i64 0, i64 %47
  store i32 %45, i32* %48, align 4
  br label %52

49:                                               ; preds = %22
  %50 = load i32, i32* %3, align 4
  %51 = add nsw i32 %50, 1
  store i32 %51, i32* %3, align 4
  br label %52

52:                                               ; preds = %49, %36
  br label %17

53:                                               ; preds = %17
  %54 = getelementptr inbounds [1001 x i32], [1001 x i32]* %2, i64 0, i64 2
  %55 = load i32, i32* %54, align 8
  %56 = icmp eq i32 %55, 1000
  br i1 %56, label %57, label %59

57:                                               ; preds = %53
  %58 = call i32 (i8*, ...) @printf(i8* getelementptr inbounds ([4 x i8], [4 x i8]* @.str, i64 0, i64 0))
  br label %59

59:                                               ; preds = %57, %53
  %60 = getelementptr inbounds [1001 x i32], [1001 x i32]* %2, i64 0, i64 1
  %61 = load i32, i32* %60, align 4
  store i32 %61, i32* %4, align 4
  store i32 2, i32* %3, align 4
  br label %62

62:                                               ; preds = %102, %59
  %63 = load i32, i32* %3, align 4
  %64 = sext i32 %63 to i64
  %65 = getelementptr inbounds [1001 x i32], [1001 x i32]* %2, i64 0, i64 %64
  %66 = load i32, i32* %65, align 4
  %67 = icmp ne i32 %66, 1000
  br i1 %67, label %68, label %105

68:                                               ; preds = %62
  %69 = load i32, i32* %3, align 4
  %70 = sext i32 %69 to i64
  %71 = getelementptr inbounds [1001 x i32], [1001 x i32]* %2, i64 0, i64 %70
  %72 = load i32, i32* %71, align 4
  %73 = load i32, i32* %4, align 4
  %74 = icmp sgt i32 %72, %73
  br i1 %74, label %75, label %81

75:                                               ; preds = %68
  %76 = load i32, i32* %4, align 4
  store i32 %76, i32* %5, align 4
  %77 = load i32, i32* %3, align 4
  %78 = sext i32 %77 to i64
  %79 = getelementptr inbounds [1001 x i32], [1001 x i32]* %2, i64 0, i64 %78
  %80 = load i32, i32* %79, align 4
  store i32 %80, i32* %4, align 4
  br label %101

81:                                               ; preds = %68
  %82 = load i32, i32* %3, align 4
  %83 = sext i32 %82 to i64
  %84 = getelementptr inbounds [1001 x i32], [1001 x i32]* %2, i64 0, i64 %83
  %85 = load i32, i32* %84, align 4
  %86 = load i32, i32* %5, align 4
  %87 = icmp sgt i32 %85, %86
  br i1 %87, label %88, label %100

88:                                               ; preds = %81
  %89 = load i32, i32* %3, align 4
  %90 = sext i32 %89 to i64
  %91 = getelementptr inbounds [1001 x i32], [1001 x i32]* %2, i64 0, i64 %90
  %92 = load i32, i32* %91, align 4
  %93 = load i32, i32* %4, align 4
  %94 = icmp ne i32 %92, %93
  br i1 %94, label %95, label %100

95:                                               ; preds = %88
  %96 = load i32, i32* %3, align 4
  %97 = sext i32 %96 to i64
  %98 = getelementptr inbounds [1001 x i32], [1001 x i32]* %2, i64 0, i64 %97
  %99 = load i32, i32* %98, align 4
  store i32 %99, i32* %5, align 4
  br label %100

100:                                              ; preds = %95, %88, %81
  br label %101

101:                                              ; preds = %100, %75
  br label %102

102:                                              ; preds = %101
  %103 = load i32, i32* %3, align 4
  %104 = add nsw i32 %103, 1
  store i32 %104, i32* %3, align 4
  br label %62

105:                                              ; preds = %62
  %106 = load i32, i32* %5, align 4
  %107 = icmp eq i32 %106, -1
  br i1 %107, label %108, label %114

108:                                              ; preds = %105
  %109 = getelementptr inbounds [1001 x i32], [1001 x i32]* %2, i64 0, i64 2
  %110 = load i32, i32* %109, align 8
  %111 = icmp ne i32 %110, 1000
  br i1 %111, label %112, label %114

112:                                              ; preds = %108
  %113 = call i32 (i8*, ...) @printf(i8* getelementptr inbounds ([4 x i8], [4 x i8]* @.str, i64 0, i64 0))
  br label %122

114:                                              ; preds = %108, %105
  %115 = getelementptr inbounds [1001 x i32], [1001 x i32]* %2, i64 0, i64 2
  %116 = load i32, i32* %115, align 8
  %117 = icmp ne i32 %116, 1000
  br i1 %117, label %118, label %121

118:                                              ; preds = %114
  %119 = load i32, i32* %5, align 4
  %120 = call i32 (i8*, ...) @printf(i8* getelementptr inbounds ([4 x i8], [4 x i8]* @.str.1, i64 0, i64 0), i32 %119)
  br label %121

121:                                              ; preds = %118, %114
  br label %122

122:                                              ; preds = %121, %112
  ret void
}

declare dso_local i32 @getchar() #1

declare dso_local i32 @printf(i8*, ...) #1


!llvm.module.flags = !{!0}
!llvm.ident = !{!1}

!0 = !{i32 1, !"wchar_size", i32 4}
!1 = !{!"clang version 10.0.0-4ubuntu1 "}
